; Function Attrs: nounwind uwtable
define range(i32 -3, 1) i32 @IDASetJacFn(ptr noundef %0, ptr noundef %1) local_unnamed_addr #0 {
  %3 = icmp eq ptr %0, null
  br i1 %3, label %4, label %5

4:                                                ; preds = %2
  tail call void (ptr, i32, i32, ptr, ptr, ptr, ...) @IDAProcessError(ptr noundef null, i32 noundef -1, i32 noundef 1766, ptr noundef nonnull @__func__.IDASetJacFn, ptr noundef nonnull @.str, ptr noundef nonnull @.str.1) #13
  br label %idaLs_AccessLMem.exit.thread

5:                                                ; preds = %2
  %6 = getelementptr inbounds nuw i8, ptr %0, i64 1048
  %7 = load ptr, ptr %6, align 8, !tbaa !65
  %8 = icmp eq ptr %7, null
  br i1 %8, label %9, label %idaLs_AccessLMem.exit

9:                                                ; preds = %5
  tail call void (ptr, i32, i32, ptr, ptr, ptr, ...) @IDAProcessError(ptr noundef nonnull %0, i32 noundef -2, i32 noundef 1773, ptr noundef nonnull @__func__.IDASetJacFn, ptr noundef nonnull @.str, ptr noundef nonnull @.str.30) #13
  br label %idaLs_AccessLMem.exit.thread

idaLs_AccessLMem.exit:                            ; preds = %5
  %.not8 = icmp eq ptr %1, null
  br i1 %.not8, label %.critedge, label %10

10:                                               ; preds = %idaLs_AccessLMem.exit
  %11 = getelementptr inbounds nuw i8, ptr %7, i64 40
  %12 = load ptr, ptr %11, align 8, !tbaa !43
  %13 = icmp eq ptr %12, null
  br i1 %13, label %14, label %15

14:                                               ; preds = %10
  tail call void (ptr, i32, i32, ptr, ptr, ptr, ...) @IDAProcessError(ptr noundef nonnull %0, i32 noundef -3, i32 noundef 304, ptr noundef nonnull @__func__.IDASetJacFn, ptr noundef nonnull @.str, ptr noundef nonnull @.str.13) #13
  br label %idaLs_AccessLMem.exit.thread

15:                                               ; preds = %10
  %16 = getelementptr inbounds nuw i8, ptr %7, i64 8
  store i32 0, ptr %16, align 8, !tbaa !44
  %17 = getelementptr inbounds nuw i8, ptr %7, i64 16
  store ptr %1, ptr %17, align 8, !tbaa !45
  %18 = getelementptr inbounds nuw i8, ptr %0, i64 24
  %19 = load ptr, ptr %18, align 8, !tbaa !53
  %20 = getelementptr inbounds nuw i8, ptr %7, i64 24
  store ptr %19, ptr %20, align 8, !tbaa !46
  br label %idaLs_AccessLMem.exit.thread

.critedge:                                        ; preds = %idaLs_AccessLMem.exit
  %21 = getelementptr inbounds nuw i8, ptr %7, i64 8
  store i32 1, ptr %21, align 8, !tbaa !44
  %22 = getelementptr inbounds nuw i8, ptr %7, i64 16
  store ptr @idaLsDQJac, ptr %22, align 8, !tbaa !45
  %23 = getelementptr inbounds nuw i8, ptr %7, i64 24
  store ptr %0, ptr %23, align 8, !tbaa !46
  br label %idaLs_AccessLMem.exit.thread

idaLs_AccessLMem.exit.thread:                     ; preds = %9, %4, %15, %.critedge, %14
  %.0 = phi i32 [ -3, %14 ], [ 0, %.critedge ], [ 0, %15 ], [ -2, %9 ], [ -1, %4 ]
  ret i32 %.0
}